target datalayout = "e-m:e-p270:32:32-p271:32:32-p272:64:64-i64:64-i128:128-f80:128-n8:16:32:64-S128"
target triple = "x86_64-unknown-linux-gnu"

%"struct.__gnu_cxx::__ops::_Iter_comp_iter.132" = type { %struct.cmp.106 }
%struct.cmp.106 = type { i8 }
%"struct.__gnu_cxx::__ops::_Val_comp_iter.134" = type { %struct.cmp.106 }

; Function Attrs: mustprogress nounwind uwtable
define linkonce_odr hidden noundef ptr @_ZNSt20__copy_move_backwardILb1ELb1ESt26random_access_iterator_tagE13__copy_move_bIP10probe_infoEEPT_PKS5_S8_S6_(ptr noundef %__first, ptr noundef %__last, ptr noundef %__result) #4 comdat align 2 {
entry:
  %__first.addr = alloca ptr, align 8
  %__last.addr = alloca ptr, align 8
  %__result.addr = alloca ptr, align 8
  %_Num = alloca i64, align 8
  store ptr %__first, ptr %__first.addr, align 8
  store ptr %__last, ptr %__last.addr, align 8
  store ptr %__result, ptr %__result.addr, align 8
  %0 = load ptr, ptr %__last.addr, align 8
  %1 = load ptr, ptr %__first.addr, align 8
  %sub.ptr.lhs.cast = ptrtoint ptr %0 to i64
  %sub.ptr.rhs.cast = ptrtoint ptr %1 to i64
  %sub.ptr.sub = sub i64 %sub.ptr.lhs.cast, %sub.ptr.rhs.cast
  %sub.ptr.div = sdiv exact i64 %sub.ptr.sub, 8
  store i64 %sub.ptr.div, ptr %_Num, align 8
  %2 = load i64, ptr %_Num, align 8
  %tobool = icmp ne i64 %2, 0
  br i1 %tobool, label %if.then, label %if.end

if.then:                                          ; preds = %entry
  %3 = load ptr, ptr %__result.addr, align 8
  %4 = load i64, ptr %_Num, align 8
  %idx.neg = sub i64 0, %4
  %add.ptr = getelementptr inbounds ptr, ptr %3, i64 %idx.neg
  %5 = load ptr, ptr %__first.addr, align 8
  %6 = load i64, ptr %_Num, align 8
  %mul = mul i64 8, %6
  call void @llvm.memmove.p0.p0.i64(ptr align 8 %add.ptr, ptr align 8 %5, i64 %mul, i1 false)
  br label %if.end

if.end:                                           ; preds = %if.then, %entry
  %7 = load ptr, ptr %__result.addr, align 8
  %8 = load i64, ptr %_Num, align 8
  %idx.neg1 = sub i64 0, %8
  %add.ptr2 = getelementptr inbounds ptr, ptr %7, i64 %idx.neg1
  ret ptr %add.ptr2
}

; Function Attrs: mustprogress uwtable
define linkonce_odr hidden noundef ptr @_ZSt23__copy_move_backward_a2ILb1EPP10probe_infoS2_ET1_T0_S4_S3_(ptr noundef %__first, ptr noundef %__last, ptr noundef %__result) #6 comdat {
entry:
  %__first.addr = alloca ptr, align 8
  %__last.addr = alloca ptr, align 8
  %__result.addr = alloca ptr, align 8
  store ptr %__first, ptr %__first.addr, align 8
  store ptr %__last, ptr %__last.addr, align 8
  store ptr %__result, ptr %__result.addr, align 8
  %0 = load ptr, ptr %__first.addr, align 8
  %1 = load ptr, ptr %__last.addr, align 8
  %2 = load ptr, ptr %__result.addr, align 8
  %call = call noundef ptr @_ZNSt20__copy_move_backwardILb1ELb1ESt26random_access_iterator_tagE13__copy_move_bIP10probe_infoEEPT_PKS5_S8_S6_(ptr noundef %0, ptr noundef %1, ptr noundef %2)
  ret ptr %call
}

; Function Attrs: mustprogress nounwind uwtable
define linkonce_odr hidden noundef ptr @_ZSt12__niter_wrapIPP10probe_infoET_RKS3_S3_(ptr noundef nonnull align 8 dereferenceable(8) %0, ptr noundef %__res) #4 comdat {
entry:
  %.addr = alloca ptr, align 8
  %__res.addr = alloca ptr, align 8
  store ptr %0, ptr %.addr, align 8
  store ptr %__res, ptr %__res.addr, align 8
  %1 = load ptr, ptr %__res.addr, align 8
  ret ptr %1
}

; Function Attrs: mustprogress uwtable
define linkonce_odr hidden noundef ptr @_ZSt23__copy_move_backward_a1ILb1EPP10probe_infoS2_ET1_T0_S4_S3_(ptr noundef %__first, ptr noundef %__last, ptr noundef %__result) #6 comdat {
entry:
  %__first.addr = alloca ptr, align 8
  %__last.addr = alloca ptr, align 8
  %__result.addr = alloca ptr, align 8
  store ptr %__first, ptr %__first.addr, align 8
  store ptr %__last, ptr %__last.addr, align 8
  store ptr %__result, ptr %__result.addr, align 8
  %0 = load ptr, ptr %__first.addr, align 8
  %1 = load ptr, ptr %__last.addr, align 8
  %2 = load ptr, ptr %__result.addr, align 8
  %call = call noundef ptr @_ZSt23__copy_move_backward_a2ILb1EPP10probe_infoS2_ET1_T0_S4_S3_(ptr noundef %0, ptr noundef %1, ptr noundef %2)
  ret ptr %call
}

; Function Attrs: mustprogress nounwind uwtable
define linkonce_odr hidden noundef ptr @_ZSt12__niter_baseIPP10probe_infoET_S3_(ptr noundef %__it) #4 comdat {
entry:
  %__it.addr = alloca ptr, align 8
  store ptr %__it, ptr %__it.addr, align 8
  %0 = load ptr, ptr %__it.addr, align 8
  ret ptr %0
}

; Function Attrs: mustprogress uwtable
define internal noundef zeroext i1 @_ZN9__gnu_cxx5__ops14_Val_comp_iterIZ11help_probesvE3cmpEclIP10probe_infoPS6_EEbRT_T0_(ptr noundef nonnull align 1 dereferenceable(1) %this, ptr noundef nonnull align 8 dereferenceable(8) %__val, ptr noundef %__it) #6 align 2 {
entry:
  %this.addr = alloca ptr, align 8
  %__val.addr = alloca ptr, align 8
  %__it.addr = alloca ptr, align 8
  store ptr %this, ptr %this.addr, align 8
  store ptr %__val, ptr %__val.addr, align 8
  store ptr %__it, ptr %__it.addr, align 8
  %this1 = load ptr, ptr %this.addr, align 8
  %_M_comp = getelementptr inbounds %"struct.__gnu_cxx::__ops::_Val_comp_iter.134", ptr %this1, i32 0, i32 0
  %0 = load ptr, ptr %__val.addr, align 8
  %1 = load ptr, ptr %0, align 8
  %2 = load ptr, ptr %__it.addr, align 8
  %3 = load ptr, ptr %2, align 8
  %call = call noundef zeroext i1 @_ZZ11help_probesvENK3cmpclEP10probe_infoS1_(ptr noundef nonnull align 1 dereferenceable(1) %_M_comp, ptr noundef %1, ptr noundef %3)
  ret i1 %call
}

; Function Attrs: mustprogress nounwind uwtable
define internal void @_ZN9__gnu_cxx5__ops14_Val_comp_iterIZ11help_probesvE3cmpEC2EONS0_15_Iter_comp_iterIS2_EE(ptr noundef nonnull align 1 dereferenceable(1) %this, ptr noundef nonnull align 1 dereferenceable(1) %__comp) unnamed_addr #4 align 2 {
entry:
  %this.addr = alloca ptr, align 8
  %__comp.addr = alloca ptr, align 8
  store ptr %this, ptr %this.addr, align 8
  store ptr %__comp, ptr %__comp.addr, align 8
  ret void
}

; Function Attrs: mustprogress uwtable
define linkonce_odr hidden noundef ptr @_ZSt22__copy_move_backward_aILb1EPP10probe_infoS2_ET1_T0_S4_S3_(ptr noundef %__first, ptr noundef %__last, ptr noundef %__result) #6 comdat {
entry:
  %__first.addr = alloca ptr, align 8
  %__last.addr = alloca ptr, align 8
  %__result.addr = alloca ptr, align 8
  store ptr %__first, ptr %__first.addr, align 8
  store ptr %__last, ptr %__last.addr, align 8
  store ptr %__result, ptr %__result.addr, align 8
  %0 = load ptr, ptr %__first.addr, align 8
  %call = call noundef ptr @_ZSt12__niter_baseIPP10probe_infoET_S3_(ptr noundef %0) #3
  %1 = load ptr, ptr %__last.addr, align 8
  %call1 = call noundef ptr @_ZSt12__niter_baseIPP10probe_infoET_S3_(ptr noundef %1) #3
  %2 = load ptr, ptr %__result.addr, align 8
  %call2 = call noundef ptr @_ZSt12__niter_baseIPP10probe_infoET_S3_(ptr noundef %2) #3
  %call3 = call noundef ptr @_ZSt23__copy_move_backward_a1ILb1EPP10probe_infoS2_ET1_T0_S4_S3_(ptr noundef %call, ptr noundef %call1, ptr noundef %call2)
  %call4 = call noundef ptr @_ZSt12__niter_wrapIPP10probe_infoET_RKS3_S3_(ptr noundef nonnull align 8 dereferenceable(8) %__result.addr, ptr noundef %call3)
  ret ptr %call4
}

; Function Attrs: mustprogress nounwind uwtable
define linkonce_odr hidden noundef ptr @_ZSt12__miter_baseIPP10probe_infoET_S3_(ptr noundef %__it) #4 comdat {
entry:
  %__it.addr = alloca ptr, align 8
  store ptr %__it, ptr %__it.addr, align 8
  %0 = load ptr, ptr %__it.addr, align 8
  ret ptr %0
}

; Function Attrs: mustprogress uwtable
define internal void @_ZSt25__unguarded_linear_insertIPP10probe_infoN9__gnu_cxx5__ops14_Val_comp_iterIZ11help_probesvE3cmpEEEvT_T0_(ptr noundef %__last) #6 {
entry:
  %__comp = alloca %"struct.__gnu_cxx::__ops::_Val_comp_iter.134", align 1
  %__last.addr = alloca ptr, align 8
  %__val = alloca ptr, align 8
  %__next = alloca ptr, align 8
  store ptr %__last, ptr %__last.addr, align 8
  %0 = load ptr, ptr %__last.addr, align 8
  %1 = load ptr, ptr %0, align 8
  store ptr %1, ptr %__val, align 8
  %2 = load ptr, ptr %__last.addr, align 8
  store ptr %2, ptr %__next, align 8
  %3 = load ptr, ptr %__next, align 8
  %incdec.ptr = getelementptr inbounds ptr, ptr %3, i32 -1
  store ptr %incdec.ptr, ptr %__next, align 8
  br label %while.cond

while.cond:                                       ; preds = %while.body, %entry
  %4 = load ptr, ptr %__next, align 8
  %call = call noundef zeroext i1 @_ZN9__gnu_cxx5__ops14_Val_comp_iterIZ11help_probesvE3cmpEclIP10probe_infoPS6_EEbRT_T0_(ptr noundef nonnull align 1 dereferenceable(1) %__comp, ptr noundef nonnull align 8 dereferenceable(8) %__val, ptr noundef %4)
  br i1 %call, label %while.body, label %while.end

while.body:                                       ; preds = %while.cond
  %5 = load ptr, ptr %__next, align 8
  %6 = load ptr, ptr %5, align 8
  %7 = load ptr, ptr %__last.addr, align 8
  store ptr %6, ptr %7, align 8
  %8 = load ptr, ptr %__next, align 8
  store ptr %8, ptr %__last.addr, align 8
  %9 = load ptr, ptr %__next, align 8
  %incdec.ptr1 = getelementptr inbounds ptr, ptr %9, i32 -1
  store ptr %incdec.ptr1, ptr %__next, align 8
  br label %while.cond, !llvm.loop !42

while.end:                                        ; preds = %while.cond
  %10 = load ptr, ptr %__val, align 8
  %11 = load ptr, ptr %__last.addr, align 8
  store ptr %10, ptr %11, align 8
  ret void
}

; Function Attrs: mustprogress uwtable
define internal void @_ZN9__gnu_cxx5__ops15__val_comp_iterIZ11help_probesvE3cmpEENS0_14_Val_comp_iterIT_EENS0_15_Iter_comp_iterIS4_EE() #6 {
entry:
  %retval = alloca %"struct.__gnu_cxx::__ops::_Val_comp_iter.134", align 1
  %__comp = alloca %"struct.__gnu_cxx::__ops::_Iter_comp_iter.132", align 1
  call void @_ZN9__gnu_cxx5__ops14_Val_comp_iterIZ11help_probesvE3cmpEC2EONS0_15_Iter_comp_iterIS2_EE(ptr noundef nonnull align 1 dereferenceable(1) %retval, ptr noundef nonnull align 1 dereferenceable(1) %__comp)
  ret void
}

; Function Attrs: mustprogress uwtable
define linkonce_odr hidden noundef ptr @_ZSt13move_backwardIPP10probe_infoS2_ET0_T_S4_S3_(ptr noundef %__first, ptr noundef %__last, ptr noundef %__result) #6 comdat {
entry:
  %__first.addr = alloca ptr, align 8
  %__last.addr = alloca ptr, align 8
  %__result.addr = alloca ptr, align 8
  store ptr %__first, ptr %__first.addr, align 8
  store ptr %__last, ptr %__last.addr, align 8
  store ptr %__result, ptr %__result.addr, align 8
  %0 = load ptr, ptr %__first.addr, align 8
  %call = call noundef ptr @_ZSt12__miter_baseIPP10probe_infoET_S3_(ptr noundef %0)
  %1 = load ptr, ptr %__last.addr, align 8
  %call1 = call noundef ptr @_ZSt12__miter_baseIPP10probe_infoET_S3_(ptr noundef %1)
  %2 = load ptr, ptr %__result.addr, align 8
  %call2 = call noundef ptr @_ZSt22__copy_move_backward_aILb1EPP10probe_infoS2_ET1_T0_S4_S3_(ptr noundef %call, ptr noundef %call1, ptr noundef %2)
  ret ptr %call2
}

; Function Attrs: mustprogress uwtable
define internal noundef zeroext i1 @_ZN9__gnu_cxx5__ops15_Iter_comp_iterIZ11help_probesvE3cmpEclIPP10probe_infoS7_EEbT_T0_(ptr noundef nonnull align 1 dereferenceable(1) %this, ptr noundef %__it1, ptr noundef %__it2) #6 align 2 {
entry:
  %this.addr = alloca ptr, align 8
  %__it1.addr = alloca ptr, align 8
  %__it2.addr = alloca ptr, align 8
  store ptr %this, ptr %this.addr, align 8
  store ptr %__it1, ptr %__it1.addr, align 8
  store ptr %__it2, ptr %__it2.addr, align 8
  %this1 = load ptr, ptr %this.addr, align 8
  %_M_comp = getelementptr inbounds %"struct.__gnu_cxx::__ops::_Iter_comp_iter.132", ptr %this1, i32 0, i32 0
  %0 = load ptr, ptr %__it1.addr, align 8
  %1 = load ptr, ptr %0, align 8
  %2 = load ptr, ptr %__it2.addr, align 8
  %3 = load ptr, ptr %2, align 8
  %call = call noundef zeroext i1 @_ZZ11help_probesvENK3cmpclEP10probe_infoS1_(ptr noundef nonnull align 1 dereferenceable(1) %_M_comp, ptr noundef %1, ptr noundef %3)
  ret i1 %call
}

; Function Attrs: mustprogress uwtable
define internal void @_ZSt16__insertion_sortIPP10probe_infoN9__gnu_cxx5__ops15_Iter_comp_iterIZ11help_probesvE3cmpEEEvT_S8_T0_(ptr noundef %__first, ptr noundef %__last) #6 {
entry:
  %__comp = alloca %"struct.__gnu_cxx::__ops::_Iter_comp_iter.132", align 1
  %__first.addr = alloca ptr, align 8
  %__last.addr = alloca ptr, align 8
  %__i = alloca ptr, align 8
  %__val = alloca ptr, align 8
  %agg.tmp5 = alloca %"struct.__gnu_cxx::__ops::_Iter_comp_iter.132", align 1
  store ptr %__first, ptr %__first.addr, align 8
  store ptr %__last, ptr %__last.addr, align 8
  %0 = load ptr, ptr %__first.addr, align 8
  %1 = load ptr, ptr %__last.addr, align 8
  %cmp = icmp eq ptr %0, %1
  br i1 %cmp, label %if.then, label %if.end

if.then:                                          ; preds = %entry
  br label %for.end

if.end:                                           ; preds = %entry
  %2 = load ptr, ptr %__first.addr, align 8
  %add.ptr = getelementptr inbounds ptr, ptr %2, i64 1
  store ptr %add.ptr, ptr %__i, align 8
  br label %for.cond

for.cond:                                         ; preds = %for.inc, %if.end
  %3 = load ptr, ptr %__i, align 8
  %4 = load ptr, ptr %__last.addr, align 8
  %cmp1 = icmp ne ptr %3, %4
  br i1 %cmp1, label %for.body, label %for.end

for.body:                                         ; preds = %for.cond
  %5 = load ptr, ptr %__i, align 8
  %6 = load ptr, ptr %__first.addr, align 8
  %call = call noundef zeroext i1 @_ZN9__gnu_cxx5__ops15_Iter_comp_iterIZ11help_probesvE3cmpEclIPP10probe_infoS7_EEbT_T0_(ptr noundef nonnull align 1 dereferenceable(1) %__comp, ptr noundef %5, ptr noundef %6)
  br i1 %call, label %if.then2, label %if.else

if.then2:                                         ; preds = %for.body
  %7 = load ptr, ptr %__i, align 8
  %8 = load ptr, ptr %7, align 8
  store ptr %8, ptr %__val, align 8
  %9 = load ptr, ptr %__first.addr, align 8
  %10 = load ptr, ptr %__i, align 8
  %11 = load ptr, ptr %__i, align 8
  %add.ptr3 = getelementptr inbounds ptr, ptr %11, i64 1
  %call4 = call noundef ptr @_ZSt13move_backwardIPP10probe_infoS2_ET0_T_S4_S3_(ptr noundef %9, ptr noundef %10, ptr noundef %add.ptr3)
  %12 = load ptr, ptr %__val, align 8
  %13 = load ptr, ptr %__first.addr, align 8
  store ptr %12, ptr %13, align 8
  br label %if.end6

if.else:                                          ; preds = %for.body
  %14 = load ptr, ptr %__i, align 8
  call void @llvm.memcpy.p0.p0.i64(ptr align 1 %agg.tmp5, ptr align 1 %__comp, i64 1, i1 false)
  call void @_ZN9__gnu_cxx5__ops15__val_comp_iterIZ11help_probesvE3cmpEENS0_14_Val_comp_iterIT_EENS0_15_Iter_comp_iterIS4_EE()
  call void @_ZSt25__unguarded_linear_insertIPP10probe_infoN9__gnu_cxx5__ops14_Val_comp_iterIZ11help_probesvE3cmpEEEvT_T0_(ptr noundef %14)
  br label %if.end6

if.end6:                                          ; preds = %if.else, %if.then2
  br label %for.inc

for.inc:                                          ; preds = %if.end6
  %15 = load ptr, ptr %__i, align 8
  %incdec.ptr = getelementptr inbounds ptr, ptr %15, i32 1
  store ptr %incdec.ptr, ptr %__i, align 8
  br label %for.cond, !llvm.loop !40

for.end:                                          ; preds = %for.cond, %if.then
  ret void
}